; Function Attrs: mustprogress uwtable
define noundef i32 @_Z20inputrec2nboundeddimPK10t_inputrec(ptr noundef readonly captures(none) %0) local_unnamed_addr #1 {
  %2 = getelementptr inbounds nuw i8, ptr %0, i64 176
  %3 = load i32, ptr %2, align 8, !tbaa !293
  %4 = icmp eq i32 %3, 2
  br i1 %4, label %_Z19inputrecPbcXY2WallsPK10t_inputrec.exit, label %_Z19inputrecPbcXY2WallsPK10t_inputrec.exit.thread

_Z19inputrecPbcXY2WallsPK10t_inputrec.exit:       ; preds = %1
  %5 = getelementptr inbounds nuw i8, ptr %0, i64 560
  %6 = load i32, ptr %5, align 8, !tbaa !334
  %7 = icmp eq i32 %6, 2
  br i1 %7, label %9, label %_Z19inputrecPbcXY2WallsPK10t_inputrec.exit.thread

_Z19inputrecPbcXY2WallsPK10t_inputrec.exit.thread: ; preds = %1, %_Z19inputrecPbcXY2WallsPK10t_inputrec.exit
  %8 = tail call noundef i32 @_Z16numPbcDimensions7PbcType(i32 noundef %3)
  br label %9

9:                                                ; preds = %_Z19inputrecPbcXY2WallsPK10t_inputrec.exit, %_Z19inputrecPbcXY2WallsPK10t_inputrec.exit.thread
  %.0 = phi i32 [ %8, %_Z19inputrecPbcXY2WallsPK10t_inputrec.exit.thread ], [ 3, %_Z19inputrecPbcXY2WallsPK10t_inputrec.exit ]
  ret i32 %.0
}